; Function Attrs: mustprogress uwtable
define i32 @CalcPar(ptr noundef readonly byval(%struct.ddTableDeal) align 8 captures(none) %0, i32 noundef %1, ptr noundef %2, ptr noundef %3) local_unnamed_addr #0 {
  %5 = tail call i32 @CalcDDtable(ptr noundef nonnull byval(%struct.ddTableDeal) align 8 %0, ptr noundef %2)
  %.not = icmp eq i32 %5, 1
  br i1 %.not, label %6, label %8

6:                                                ; preds = %4
  %7 = tail call i32 @Par(ptr noundef %2, ptr noundef %3, i32 noundef %1)
  br label %8

8:                                                ; preds = %4, %6
  %.0 = phi i32 [ %7, %6 ], [ %5, %4 ]
  ret i32 %.0
}